; Function Attrs: mustprogress nofree nounwind willreturn uwtable
define dso_local void @_ZN5cmsys20CommandLineArguments16PopulateVariableEPdRKNSt7__cxx1112basic_stringIcSt11char_traitsIcESaIcEEE(ptr noundef nonnull readnone align 8 captures(none) dereferenceable(45) %0, ptr noundef writeonly captures(none) initializes((0, 8)) %1, ptr noundef nonnull readonly align 8 captures(none) dereferenceable(32) %2) local_unnamed_addr #15 align 2 personality ptr @__gxx_personality_v0 {
  %4 = alloca ptr, align 8
  call void @llvm.lifetime.start.p0(i64 8, ptr nonnull %4) #29
  store ptr null, ptr %4, align 8, !tbaa !49
  %5 = load ptr, ptr %2, align 8, !tbaa !29
  %6 = call double @strtod(ptr noundef %5, ptr noundef nonnull %4) #29
  store double %6, ptr %1, align 8, !tbaa !93
  call void @llvm.lifetime.end.p0(i64 8, ptr nonnull %4) #29
  ret void
}